HI-TECH Software C Compiler 

Linker command line:

--edf=C:\Program Files (x86)\HI-TECH Software\PICC\9.83\dat\en_msgs.txt -cs \
  -h+dist/Release/production\ETH_IO5_Valen_modifiye.X.production.sym -z \
  -Q16F887 -ol.obj \
  -Mdist/Release/production/ETH_IO5_Valen_modifiye.X.production.map -E1 \
  -ACONST=00h-0FFhx32 -ACODE=00h-07FFhx4 -ASTRCODE=00h-01FFFh \
  -AENTRY=00h-0FFhx32 -ASTRING=00h-0FFhx32 -ABANK0=020h-06Fh \
  -ABANK1=0A0h-0EFh -ABANK2=0110h-016Fh -ABANK3=0190h-01EFh \
  -ARAM=020h-06Fh,0A0h-0EFh,0110h-016Fh,0190h-01EFh \
  -AABS1=020h-07Fh,0A0h-0EFh,0110h-016Fh,0190h-01EFh -ACOMMON=070h-07Fh \
  -ASFR0=00h-01Fh -ASFR1=080h-09Fh -ASFR2=0100h-010Fh -ASFR3=0180h-018Fh \
  -preset_vec=00h,intentry=04h,init,end_init -ppowerup=CODE -pfunctab=CODE \
  -ACONFIG=02007h-02008h -pconfig=CONFIG -DCONFIG=2 -AIDLOC=02000h-02003h \
  -pidloc=IDLOC -DIDLOC=2 -AEEDATA=00h-0FFh/02100h -peeprom_data=EEDATA \
  -DEEDATA=2 -DCODE=2 -DSTRCODE=2 -DSTRING=2 -DCONST=2 -DENTRY=2 -k \
  C:\Users\erdemts1\AppData\Local\Temp\s5b4.obj \
  dist/Release/production\ETH_IO5_Valen_modifiye.X.production.obj 

Object code version is 3.10

Machine type is 16F887



                Name                               Link     Load   Length Selector   Space Scale
C:\Users\erdemts1\AppData\Local\Temp\s5b4.obj
                end_init                              E        E        3        8       0
                reset_vec                             0        0        3        0       0
dist/Release/production\ETH_IO5_Valen_modifiye.X.production.obj
                intentry                              4        4        A        8       0
                eeprom_data                           0     2100        8     4200       2
                config                             2007     2007        1     400E       0
                text747                             CB8      CB8       FD     1970       0
                text746                             B58      B58       34     16B0       0
                text745                             B20      B20       16     1640       0
                text744                             7F0      7F0        E        8       0
                text726                             BF6      BF6       C2     17EC       0
                text725                             B8C      B8C       6A     1718       0
                text718                             EB5      EB5      14B     1D6A       0
                text717                              11       11      7DF        8       0
                maintext                            DB5      DB5      100     1B6A       0
                cstackBANK0                          20       20       4F       20       1
                cstackCOMMON                         70       70        8       70       1
                cstackBANK1                          C6       C6        6       A0       1
                clrtext                             B18      B18        8     1630       0
                bssBANK2                            110      110       3C      110       1
                bssBANK3                            190      190       3C      190       1
                bssBANK1                             A0       A0       26       A0       1
                bssBANK0                             6F       6F        1       20       1
                bssCOMMON                            79       79        4       70       1
                bitbssCOMMON                        3C0       78        7       70       1     8
                cinit                               B36      B36       22     166C       0
                nvBANK1                              CC       CC        3       A0       1
                strings                             800      800       6B     1000       0

TOTAL           Name                               Link     Load   Length     Space
        CLASS   CONST          

        CLASS   CODE           
                end_init                              E        E        3         0
                intentry                              4        4        A         0
                reset_vec                             0        0        3         0
                text747                             CB8      CB8       FD         0
                text746                             B58      B58       34         0
                text745                             B20      B20       16         0
                text744                             7F0      7F0        E         0
                text726                             BF6      BF6       C2         0
                text725                             B8C      B8C       6A         0
                text718                             EB5      EB5      14B         0
                text717                              11       11      7DF         0
                maintext                            DB5      DB5      100         0
                clrtext                             B18      B18        8         0
                cinit                               B36      B36       22         0

        CLASS   STRCODE        

        CLASS   ENTRY          

        CLASS   STRING         
                strings                             800      800       6B         0

        CLASS   BANK0          
                cstackBANK0                          20       20       4F         1
                bssBANK0                             6F       6F        1         1

        CLASS   BANK1          
                cstackBANK1                          C6       C6        6         1
                bssBANK1                             A0       A0       26         1
                nvBANK1                              CC       CC        3         1

        CLASS   BANK2          
                bssBANK2                            110      110       3C         1

        CLASS   BANK3          
                bssBANK3                            190      190       3C         1

        CLASS   RAM            

        CLASS   ABS1           
                abs_s1                               7E       7E        2         1

        CLASS   COMMON         
                cstackCOMMON                         70       70        8         1
                bssCOMMON                            79       79        4         1
                bitbssCOMMON                        3C0       78        7         1

        CLASS   SFR0           

        CLASS   SFR1           

        CLASS   SFR2           

        CLASS   SFR3           

        CLASS   CONFIG         
                config                             2007     2007        1         0

        CLASS   IDLOC          

        CLASS   EEDATA         
                eeprom_data                           0     2100        8         2



SEGMENTS        Name                           Load    Length   Top    Selector   Space  Class     Delta

                reset_vec                      000000  000003  000003         0       0  CODE        2
                intentry                       000004  0007FA  0007FE         8       0  CODE        2
                cstackBANK0                    000020  000050  000070        20       1  BANK0       1
                cstackCOMMON                   000070  00000D  00007D        70       1  COMMON      1
                bssBANK1                       0000A0  00002F  0000CF        A0       1  BANK1       1
                bssBANK2                       000110  00003C  00014C       110       1  BANK2       1
                bssBANK3                       000190  00003C  0001CC       190       1  BANK3       1
                strings                        000800  00006B  00086B      1000       0  STRING      2
                clrtext                        000B18  000008  000B20      1630       0  CODE        2
                text745                        000B20  000016  000B36      1640       0  CODE        2
                cinit                          000B36  000022  000B58      166C       0  CODE        2
                text746                        000B58  000034  000B8C      16B0       0  CODE        2
                text725                        000B8C  00006A  000BF6      1718       0  CODE        2
                text726                        000BF6  0000C2  000CB8      17EC       0  CODE        2
                text747                        000CB8  0000FD  000DB5      1970       0  CODE        2
                maintext                       000DB5  000100  000EB5      1B6A       0  CODE        2
                text718                        000EB5  00014B  001000      1D6A       0  CODE        2
                config                         002007  000001  002008      400E       0  CONFIG      2
                eeprom_data                    002100  000008  002108      4200       2  EEDATA      2


UNUSED ADDRESS RANGES

        Name                Unused          Largest block    Delta
        BANK1            000CF-000EF              21           1
        BANK2            0014C-0016F              24           1
        BANK3            001CC-001EF              24           1
        CODE             00003-00003               1           2
                         007FE-007FF               2
                         0086B-00B17             2AD
                         01000-01FFF             800
        COMMON           0007D-0007D               1           1
        CONFIG           02008-02008               1           2
        CONST            00003-00003               1           2
                         007FE-007FF               2
                         0086B-00B17             100
                         01000-01FFF             100
        EEDATA           02108-021FF              F8           2
        ENTRY            00003-00003               1           2
                         007FE-007FF               2
                         0086B-00B17             100
                         01000-01FFF             100
        IDLOC            02000-02003               4           2
        RAM              000CF-000EF              21           1
                         0014C-0016F              24
                         001CC-001EF              24
        SFR0             00000-0001F              20           1
        SFR1             00080-0009F              20           1
        SFR2             00100-0010F              10           1
        SFR3             00180-0018F              10           1
        STRCODE          00003-00003               1           2
                         007FE-007FF               2
                         0086B-00B17             2AD
                         01000-01FFF            1000
        STRING           00003-00003               1           2
                         007FE-007FF               2
                         0086B-00B17             100
                         01000-01FFF             100

                                  Symbol Table

??_CheckCommand                              cstackBANK0  00020
??_StringSerialProtocolService               cstackBANK1  000C6
??___awtoft                                  cstackBANK0  00038
??___bmul                                    cstackBANK0  00021
??___ftadd                                   cstackBANK0  0005D
??___ftdiv                                   cstackBANK0  0003F
??___ftmul                                   cstackBANK0  0004E
??___ftpack                                  cstackBANK0  00025
??___fttol                                   cstackBANK0  0002C
??___lwdiv                                   cstackBANK0  00024
??___lwmod                                   cstackBANK0  00024
??___lwtoft                                  cstackBANK0  0002B
??___wmul                                    cstackBANK0  00024
??_cGetFromReceiveBuffer                     cstackBANK0  00020
??_cGetFromTxBuffer                          cstackCOMMON 00070
??_calgulateTemp                             cstackBANK0  00065
??_erdem                                     cstackCOMMON 00074
??_getTemperature                            cstackBANK0  00059
??_itoa                                      cstackBANK0  00033
??_main                                      cstackBANK1  000CA
??_read_ADC                                  cstackBANK0  00022
??_restartUSR_K2                             cstackCOMMON 00072
??_setCommunicationTimeOut                   cstackBANK0  00022
??_temperatureOffset                         cstackBANK0  00028
??_utoa                                      cstackBANK0  0002B
??_vAddToUartReceiveBuffer                   cstackCOMMON 00070
??_vAddToUartTransmitBuffer                  cstackBANK0  00020
??_vCheckError                               cstackCOMMON 00070
??_vInitializeADC                            cstackBANK0  00020
??_vInitializeBoard                          cstackBANK0  00020
??_vInitializeUart                           cstackBANK0  00020
??_vPulseRelay                               cstackBANK0  00024
??_vResetPrintBuffer                         cstackBANK0  00020
??_vSendDataToUart                           cstackBANK0  00020
??_vSendTemperatureToBuffer                  cstackBANK0  00037
??_vSetRelay                                 cstackBANK0  00021
??i1_setCommunicationTimeOut                 cstackCOMMON 00072
?_CheckCommand                               cstackCOMMON 00070
?_StringSerialProtocolService                cstackCOMMON 00070
?___awtoft                                   cstackBANK0  00035
?___bmul                                     cstackBANK0  00020
?___ftadd                                    cstackBANK0  00057
?___ftdiv                                    cstackBANK0  00039
?___ftmul                                    cstackBANK0  00048
?___ftpack                                   cstackBANK0  00020
?___fttol                                    cstackBANK0  00028
?___lwdiv                                    cstackBANK0  00020
?___lwmod                                    cstackBANK0  00020
?___lwtoft                                   cstackBANK0  00028
?___wmul                                     cstackBANK0  00020
?_cGetFromReceiveBuffer                      cstackCOMMON 00070
?_cGetFromTxBuffer                           cstackCOMMON 00070
?_calgulateTemp                              cstackBANK0  00063
?_erdem                                      cstackCOMMON 00070
?_getTemperature                             cstackBANK0  00057
?_itoa                                       cstackBANK0  0002F
?_main                                       cstackCOMMON 00070
?_read_ADC                                   cstackBANK0  00020
?_restartUSR_K2                              cstackCOMMON 00070
?_setCommunicationTimeOut                    cstackBANK0  00020
?_temperatureOffset                          cstackBANK0  00026
?_utoa                                       cstackBANK0  00027
?_vAddToUartReceiveBuffer                    cstackCOMMON 00070
?_vAddToUartTransmitBuffer                   cstackCOMMON 00070
?_vCheckError                                cstackCOMMON 00070
?_vInitializeADC                             cstackCOMMON 00070
?_vInitializeBoard                           cstackCOMMON 00070
?_vInitializeUart                            cstackCOMMON 00070
?_vPulseRelay                                cstackBANK0  00023
?_vResetPrintBuffer                          cstackCOMMON 00070
?_vSendDataToUart                            cstackCOMMON 00070
?_vSendTemperatureToBuffer                   cstackBANK0  00035
?_vSetRelay                                  cstackBANK0  00020
?i1_setCommunicationTimeOut                  cstackCOMMON 00070
CheckCommand@command                         cstackBANK0  00021
CheckCommand@i                               cstackBANK0  00024
CheckCommand@result                          cstackBANK0  00022
CheckCommand@size                            cstackBANK0  00023
StringSerialProtocolService@i                cstackBANK1  000C9
StringSerialProtocolService@lastReceivedChar cstackBANK1  000C8
_ADCON0bits                                  (abs)        0001F
_ADCON1bits                                  (abs)        0009F
_ADDEN                                       (abs)        000C3
_ADRESH                                      (abs)        0001E
_ADRESL                                      (abs)        0009E
_ANSEL                                       (abs)        00188
_ANSELH                                      (abs)        00189
_ANSELHbits                                  (abs)        00189
_BRG16                                       (abs)        00C3B
_BRGH                                        (abs)        004C2
_C1ON                                        (abs)        0083F
_C2ON                                        (abs)        00847
_CARRY                                       (abs)        00018
_CM1CON0                                     (abs)        00107
_CM2CON0                                     (abs)        00108
_CREN                                        (abs)        000C4
_CheckCommand                                text717      001CD
_EEADR                                       (abs)        0010D
_EECON1                                      (abs)        0018C
_EECON2                                      (abs)        0018D
_EEDATA                                      (abs)        0010C
_FERR                                        (abs)        000C2
_GIE                                         (abs)        0005F
_INTCON                                      (abs)        0000B
_ISI                                         strings      00863
_OERR                                        (abs)        000C1
_OPTION_REG                                  (abs)        00081
_OSCCON                                      (abs)        0008F
_PEIE                                        (abs)        0005E
_PIE1                                        (abs)        0008C
_PIE2                                        (abs)        0008D
_PORTA                                       (abs)        00005
_PORTB                                       (abs)        00006
_PORTBbits                                   (abs)        00006
_PORTC                                       (abs)        00007
_PORTCbits                                   (abs)        00007
_PORTD                                       (abs)        00008
_PORTDbits                                   (abs)        00008
_PORTE                                       (abs)        00009
_RCIE                                        (abs)        00465
_RCIF                                        (abs)        00065
_RCREG                                       (abs)        0001A
_RD                                          (abs)        00C60
_RELAY_1_Timer                               bssCOMMON    00079
_RELAY_1_Timer_En                            bitbssCOMMON 003C0
_RELAY_2_Timer                               bssCOMMON    0007A
_RELAY_2_Timer_En                            bitbssCOMMON 003C1
_RELAY_3_Timer                               bssBANK0     0006F
_RELAY_3_Timer_En                            bitbssCOMMON 003C2
_RELAY_4_Timer                               bssBANK1     000B0
_RELAY_4_Timer_En                            bitbssCOMMON 003C3
_RELAY_5_Timer                               bssBANK1     000B1
_RELAY_5_Timer_En                            bitbssCOMMON 003C4
_ROLE                                        strings      0085E
_RX9                                         (abs)        000C6
_SPBRG                                       (abs)        00099
_SPEN                                        (abs)        000C7
_SYNC                                        (abs)        004C4
_StringSerialProtocolService                 text717      00011
_T0IE                                        (abs)        0005D
_T0IF                                        (abs)        0005A
_T1                                          strings      00806
_T2                                          strings      0081C
_TMO                                         strings      00867
_TMR0                                        (abs)        00001
_TRISA                                       (abs)        00085
_TRISB                                       (abs)        00086
_TRISBbits                                   (abs)        00086
_TRISC                                       (abs)        00087
_TRISCbits                                   (abs)        00087
_TRISD                                       (abs)        00088
_TRISE                                       (abs)        00089
_TX9                                         (abs)        004C6
_TXEN                                        (abs)        004C5
_TXIE                                        (abs)        00464
_TXIF                                        (abs)        00064
_TXREG                                       (abs)        00019
_V1                                          strings      00832
_V2                                          strings      00848
_WDTCON                                      (abs)        00105
_WPUB                                        (abs)        00095
_WR                                          (abs)        00C61
_WREN                                        (abs)        00C62
__Babs1                                      abs1         04210
__Bbank0                                     bank0        04210
__Bbank1                                     bank1        04210
__Bbank2                                     bank2        04210
__Bbank3                                     bank3        04210
__BbitbssCOMMON                              bitbssCOMMON 04210
__BbssBANK0                                  bssBANK0     04210
__BbssBANK1                                  bssBANK1     04210
__BbssBANK2                                  bssBANK2     04210
__BbssBANK3                                  bssBANK3     04210
__BbssCOMMON                                 bssCOMMON    04210
__Bcinit                                     cinit        04210
__Bclrtext                                   clrtext      04210
__Bcode                                      code         04210
__Bcommon                                    common       04210
__BcstackBANK0                               cstackBANK0  04210
__BcstackBANK1                               cstackBANK1  04210
__BcstackCOMMON                              cstackCOMMON 04210
__Beeprom_data                               eeprom_data  02100
__Bmaintext                                  maintext     04210
__Bpa_nodes                                  pa_nodes     04210
__Bram                                       ram          04210
__Bsfr0                                      sfr0         04210
__Bsfr1                                      sfr1         04210
__Bsfr2                                      sfr2         04210
__Bsfr3                                      sfr3         04210
__Bstrings                                   strings      04210
__Btext                                      text         04210
__Habs1                                      abs1         00010
__Hbank0                                     bank0        00010
__Hbank1                                     bank1        00010
__Hbank2                                     bank2        00010
__Hbank3                                     bank3        00010
__HbitbssCOMMON                              bitbssCOMMON 21080
__HbssBANK0                                  bssBANK0     00010
__HbssBANK1                                  bssBANK1     00010
__HbssBANK2                                  bssBANK2     00010
__HbssBANK3                                  bssBANK3     00010
__HbssCOMMON                                 bssCOMMON    00010
__Hcinit                                     cinit        00010
__Hclrtext                                   clrtext      00010
__Hcode                                      code         00010
__Hcommon                                    common       00010
__Hconfig                                    config       02008
__HcstackBANK0                               cstackBANK0  00010
__HcstackBANK1                               cstackBANK1  00010
__HcstackCOMMON                              cstackCOMMON 00010
__Heeprom_data                               eeprom_data  00008
__Hend_init                                  end_init     00011
__Hfunctab                                   functab      00000
__Hidloc                                     idloc        00000
__Hinit                                      init         0000E
__Hintentry                                  intentry     0000E
__Hmaintext                                  maintext     00010
__HnvBANK1                                   nvBANK1      04210
__Hpa_nodes                                  pa_nodes     00010
__Hpowerup                                   powerup      00000
__Hram                                       ram          00010
__Hreset_vec                                 reset_vec    00003
__Hsfr0                                      sfr0         00010
__Hsfr1                                      sfr1         00010
__Hsfr2                                      sfr2         00010
__Hsfr3                                      sfr3         00010
__Hstrings                                   strings      00010
__Htext                                      text         00010
__Labs1                                      abs1         00010
__Lbank0                                     bank0        00010
__Lbank1                                     bank1        00010
__Lbank2                                     bank2        00010
__Lbank3                                     bank3        00010
__LbitbssCOMMON                              bitbssCOMMON 21080
__LbssBANK0                                  bssBANK0     00010
__LbssBANK1                                  bssBANK1     00010
__LbssBANK2                                  bssBANK2     00010
__LbssBANK3                                  bssBANK3     00010
__LbssCOMMON                                 bssCOMMON    00010
__Lcinit                                     cinit        00010
__Lclrtext                                   clrtext      00010
__Lcode                                      code         00010
__Lcommon                                    common       00010
__Lconfig                                    config       02007
__LcstackBANK0                               cstackBANK0  00010
__LcstackBANK1                               cstackBANK1  00010
__LcstackCOMMON                              cstackCOMMON 00010
__Leeprom_data                               eeprom_data  00000
__Lend_init                                  end_init     0000E
__Lfunctab                                   functab      00000
__Lidloc                                     idloc        00000
__Linit                                      init         0000E
__Lintentry                                  intentry     00004
__Lmaintext                                  maintext     00010
__LnvBANK1                                   nvBANK1      04210
__Lpa_nodes                                  pa_nodes     00010
__Lpowerup                                   powerup      00000
__Lram                                       ram          00010
__Lreset_vec                                 reset_vec    00000
__Lsfr0                                      sfr0         00010
__Lsfr1                                      sfr1         00010
__Lsfr2                                      sfr2         00010
__Lsfr3                                      sfr3         00010
__Lstrings                                   strings      00010
__Ltext                                      text         00010
__S0                                         (abs)        02008
__S1                                         (abs)        001CC
__S2                                         (abs)        02108
___awtoft                                    text717      00645
___awtoft@c                                  cstackBANK0  00035
___awtoft@sign                               cstackBANK0  00038
___bmul                                      text717      002A9
___bmul@multiplicand                         cstackBANK0  00020
___bmul@multiplier                           cstackBANK0  00022
___bmul@product                              cstackBANK0  00021
___ftadd                                     text726      00BF6
___ftadd@exp1                                cstackBANK0  00062
___ftadd@exp2                                cstackBANK0  00061
___ftadd@f1                                  cstackBANK0  00057
___ftadd@f2                                  cstackBANK0  0005A
___ftadd@sign                                cstackBANK0  00060
___ftdiv                                     text725      00B8C
___ftdiv@cntr                                cstackBANK0  00042
___ftdiv@exp                                 cstackBANK0  00046
___ftdiv@f1                                  cstackBANK0  0003C
___ftdiv@f2                                  cstackBANK0  00039
___ftdiv@f3                                  cstackBANK0  00043
___ftdiv@sign                                cstackBANK0  00047
___ftmul                                     text717      006F9
___ftmul@cntr                                cstackBANK0  00055
___ftmul@exp                                 cstackBANK0  00051
___ftmul@f1                                  cstackBANK0  00048
___ftmul@f2                                  cstackBANK0  0004B
___ftmul@f3_as_product                       cstackBANK0  00052
___ftmul@sign                                cstackBANK0  00056
___ftpack                                    text717      006BB
___ftpack@arg                                cstackBANK0  00020
___ftpack@exp                                cstackBANK0  00023
___ftpack@sign                               cstackBANK0  00024
___fttol                                     text717      00660
___fttol@exp1                                cstackBANK0  00034
___fttol@f1                                  cstackBANK0  00028
___fttol@lval                                cstackBANK0  00030
___fttol@sign1                               cstackBANK0  0002F
___lwdiv                                     text718      00FB2
___lwdiv@counter                             cstackBANK0  00026
___lwdiv@dividend                            cstackBANK0  00022
___lwdiv@divisor                             cstackBANK0  00020
___lwdiv@quotient                            cstackBANK0  00024
___lwmod                                     text718      00FDC
___lwmod@counter                             cstackBANK0  00024
___lwmod@dividend                            cstackBANK0  00022
___lwmod@divisor                             cstackBANK0  00020
___lwtoft                                    text717      00783
___lwtoft@c                                  cstackBANK0  00028
___wmul                                      text717      002FC
___wmul@multiplicand                         cstackBANK0  00022
___wmul@multiplier                           cstackBANK0  00020
___wmul@product                              cstackBANK0  00024
__end_of_CheckCommand                        text717      00224
__end_of_StringSerialProtocolService         text717      001BF
__end_of___awtoft                            text717      00660
__end_of___bmul                              text717      002B8
__end_of___ftadd                             text726      00CB8
__end_of___ftdiv                             text725      00BF6
__end_of___ftmul                             text717      00768
__end_of___ftpack                            text717      006F9
__end_of___fttol                             text717      006BB
__end_of___lwdiv                             text718      00FDC
__end_of___lwmod                             text718      01000
__end_of___lwtoft                            text717      00793
__end_of___wmul                              text717      00315
__end_of_cGetFromReceiveBuffer               text717      002A9
__end_of_cGetFromTxBuffer                    text747      00D64
__end_of_calgulateTemp                       text717      00645
__end_of_erdem                               text747      00D40
__end_of_getTemperature                      text717      00363
__end_of_itoa                                text718      00F68
__end_of_main                                maintext     00EB5
__end_of_read_ADC                            text717      00783
__end_of_restartUSR_K2                       text747      00DAE
__end_of_setCommunicationTimeOut             text717      0079C
__end_of_temperatureOffset                   text717      002FC
__end_of_utoa                                text718      00FB2
__end_of_vAddToUartReceiveBuffer             text747      00D57
__end_of_vAddToUartTransmitBuffer            text717      001CD
__end_of_vCheckError                         text747      00D49
__end_of_vInitializeADC                      text744      007FE
__end_of_vInitializeBoard                    text746      00B8C
__end_of_vInitializeUart                     text745      00B36
__end_of_vPulseRelay                         text717      0028C
__end_of_vResetPrintBuffer                   text717      00299
__end_of_vSendDataToUart                     text717      0025C
__end_of_vSendTemperatureToBuffer            text718      00F51
__end_of_vSetRelay                           text717      00257
__end_ofi1_setCommunicationTimeOut           text747      00DB5
__pbitbssCOMMON                              bitbssCOMMON 003C0
__pbssBANK0                                  bssBANK0     0006F
__pbssBANK1                                  bssBANK1     000A0
__pbssBANK2                                  bssBANK2     00110
__pbssBANK3                                  bssBANK3     00190
__pbssCOMMON                                 bssCOMMON    00079
__pcstackBANK0                               cstackBANK0  00020
__pcstackBANK1                               cstackBANK1  000C6
__pcstackCOMMON                              cstackCOMMON 00070
__pintentry                                  intentry     00004
__pmaintext                                  maintext     00DB5
__pnvBANK1                                   nvBANK1      000CC
__pstrings                                   strings      00800
__ptext717                                   text717      00011
__ptext718                                   text718      00EB5
__ptext719                                   text718      00F51
__ptext720                                   text717      00363
__ptext721                                   text717      00315
__ptext722                                   text717      00783
__ptext723                                   text717      00645
__ptext724                                   text717      006F9
__ptext725                                   text725      00B8C
__ptext726                                   text726      00BF6
__ptext727                                   text718      00F68
__ptext728                                   text717      002B8
__ptext729                                   text717      00660
__ptext730                                   text717      006BB
__ptext731                                   text718      00FDC
__ptext732                                   text718      00FB2
__ptext733                                   text717      002FC
__ptext734                                   text717      002A9
__ptext735                                   text717      001CD
__ptext736                                   text717      00299
__ptext737                                   text717      0028C
__ptext738                                   text717      00768
__ptext739                                   text717      00224
__ptext740                                   text717      0025C
__ptext741                                   text717      00257
__ptext742                                   text717      001BF
__ptext743                                   text717      00793
__ptext744                                   text744      007F0
__ptext745                                   text745      00B20
__ptext746                                   text746      00B58
__ptext747                                   text747      00CB8
__ptext748                                   text747      00D64
__ptext749                                   text747      00DAE
__ptext750                                   text747      00D57
__ptext751                                   text747      00D49
__ptext752                                   text747      00D40
__ptext753                                   text753      00000
__size_of_CheckCommand                       (abs)        00000
__size_of_StringSerialProtocolService        (abs)        00000
__size_of___awtoft                           (abs)        00000
__size_of___bmul                             (abs)        00000
__size_of___ftadd                            (abs)        00000
__size_of___ftdiv                            (abs)        00000
__size_of___ftmul                            (abs)        00000
__size_of___ftpack                           (abs)        00000
__size_of___fttol                            (abs)        00000
__size_of___lwdiv                            (abs)        00000
__size_of___lwmod                            (abs)        00000
__size_of___lwtoft                           (abs)        00000
__size_of___wmul                             (abs)        00000
__size_of_cGetFromReceiveBuffer              (abs)        00000
__size_of_cGetFromTxBuffer                   (abs)        00000
__size_of_calgulateTemp                      (abs)        00000
__size_of_erdem                              (abs)        00000
__size_of_getTemperature                     (abs)        00000
__size_of_itoa                               (abs)        00000
__size_of_main                               (abs)        00000
__size_of_read_ADC                           (abs)        00000
__size_of_restartUSR_K2                      (abs)        00000
__size_of_setCommunicationTimeOut            (abs)        00000
__size_of_temperatureOffset                  (abs)        00000
__size_of_utoa                               (abs)        00000
__size_of_vAddToUartReceiveBuffer            (abs)        00000
__size_of_vAddToUartTransmitBuffer           (abs)        00000
__size_of_vCheckError                        (abs)        00000
__size_of_vInitializeADC                     (abs)        00000
__size_of_vInitializeBoard                   (abs)        00000
__size_of_vInitializeUart                    (abs)        00000
__size_of_vPulseRelay                        (abs)        00000
__size_of_vResetPrintBuffer                  (abs)        00000
__size_of_vSendDataToUart                    (abs)        00000
__size_of_vSendTemperatureToBuffer           (abs)        00000
__size_of_vSetRelay                          (abs)        00000
__size_ofi1_setCommunicationTimeOut          (abs)        00000
_cGetFromReceiveBuffer                       text717      00299
_cGetFromTxBuffer                            text747      00D57
_calgulateTemp                               text717      00363
_commandBuffer                               bssBANK1     000A6
_commandCharCounter                          bssBANK1     000B2
_communicationControlTimer                   bssBANK1     000AA
_communicationControlTimer_En                bitbssCOMMON 003C5
_currentTemperature                          bssBANK1     000AC
_currentTemperatureBuffer                    bssBANK1     000BA
_dataBuffer                                  bssBANK1     000C0
_dataCounter                                 bssBANK1     000B3
_erdem                                       text747      00CB8
_exit                                        init         0000E
_getTemperature                              text717      00315
_inputPort                                   bssBANK1     000B4
_itoa                                        text718      00F51
_main                                        maintext     00DB5
_printBuffer                                 bssBANK1     000A0
_read_ADC                                    text717      00768
_restartUSR_K2                               text747      00D64
_setCommunicationTimeOut                     text717      00793
_state                                       bssBANK1     000B5
_temperatureOffset                           text717      002B8
_temperature_mV                              bssBANK1     000AE
_tim10Hz                                     nvBANK1      000CC
_tim1min                                     bssBANK1     000B6
_tim1sec                                     nvBANK1      000CD
_tim2Hz                                      nvBANK1      000CE
_timeoutFlag                                 bitbssCOMMON 003C6
_timer                                       bssBANK1     000B7
_uartReceiveBuffer                           bssBANK3     00190
_uartReceiveBufferR                          bssBANK1     000B8
_uartReceiveBufferW                          bssBANK1     000B9
_uartTransmitBuffer                          bssBANK2     00110
_uartTransmitBufferR                         bssCOMMON    0007B
_uartTransmitBufferW                         bssCOMMON    0007C
_utoa                                        text718      00F68
_vAddToUartReceiveBuffer                     text747      00D49
_vAddToUartTransmitBuffer                    text717      001BF
_vCheckError                                 text747      00D40
_vInitializeADC                              text744      007F0
_vInitializeBoard                            text746      00B58
_vInitializeUart                             text745      00B20
_vPulseRelay                                 text717      0025C
_vResetPrintBuffer                           text717      0028C
_vSendDataToUart                             text717      00257
_vSendTemperatureToBuffer                    text718      00EB5
_vSetRelay                                   text717      00224
btemp                                        (abs)        0007E
cGetFromReceiveBuffer@value                  cstackBANK0  00020
cGetFromTxBuffer@value                       cstackCOMMON 00070
calgulateTemp@T1_                            cstackBANK0  0006D
calgulateTemp@T2_                            cstackBANK0  00069
calgulateTemp@V1_                            cstackBANK0  0006B
calgulateTemp@V2_                            cstackBANK0  00067
calgulateTemp@milliVolt                      cstackBANK0  00063
calgulateTemp@temperature                    cstackBANK0  00065
clear_ram                                    clrtext      00B18
end_of_initialization                        cinit        00B54
erdem@temp                                   cstackCOMMON 00077
getTemperature@iTempP                        cstackBANK0  0005C
getTemperature@m                             cstackBANK0  0005E
getTemperature@milliVolt                     cstackBANK0  00059
i1_setCommunicationTimeOut                   text747      00DAE
i1l1178                                                        
i1l1181                                                        
i1l4399                                                        
i1l7474                                                        
i1l7480                                                        
i1l7482                                                        
i1l7484                                                        
i1l7486                                                        
i1l7490                                                        
i1l7494                                                        
i1l7498                                                        
i1l7502                                                        
i1l7512                                                        
i1l7516                                                        
i1l7518                                                        
i1l7520                                                        
i1l7522                                                        
i1l7542                                                        
i1l7552                                                        
i1l7554                                                        
i1l7556                                                        
i1l7558                                                        
i1l7560                                                        
i1l7562                                                        
i1l7568                                                        
i1l7570                                                        
i1l7572                                                        
i1l7576                                                        
i1l7578                                                        
i1l7580                                                        
i1l7858                                                        
i1l7860                                                        
i1setCommunicationTimeOut@value              cstackCOMMON 00070
interrupt_function                           intentry     00004
intlevel0                                    functab      00000
intlevel1                                    functab      00000
intlevel2                                    functab      00000
intlevel3                                    functab      00000
intlevel4                                    functab      00000
intlevel5                                    functab      00000
itoa@base                                    cstackBANK0  00031
itoa@buf                                     cstackBANK0  00034
itoa@val                                     cstackBANK0  0002F
l1175                                                          
l1178                                                          
l1186                                                          
l1191                                                          
l1226                                                          
l1230                                                          
l2262                                                          
l2276                                                          
l3301                                                          
l3307                                                          
l4456                                                          
l4477                                                          
l5463                                                          
l5471                                                          
l5477                                                          
l5483                                                          
l5493                                                          
l5503                                                          
l5617                                                          
l5703                                                          
l7352                                                          
l7354                                                          
l7356                                                          
l7358                                                          
l7360                                                          
l7362                                                          
l7364                                                          
l7366                                                          
l7368                                                          
l7370                                                          
l7372                                                          
l7374                                                          
l7376                                                          
l7378                                                          
l7380                                                          
l7382                                                          
l7384                                                          
l7386                                                          
l7388                                                          
l7390                                                          
l7392                                                          
l7394                                                          
l7396                                                          
l7398                                                          
l7400                                                          
l7402                                                          
l7404                                                          
l7406                                                          
l7408                                                          
l7410                                                          
l7412                                                          
l7414                                                          
l7420                                                          
l7422                                                          
l7424                                                          
l7440                                                          
l7442                                                          
l7444                                                          
l7446                                                          
l7448                                                          
l7450                                                          
l7452                                                          
l7454                                                          
l7456                                                          
l7458                                                          
l7460                                                          
l7462                                                          
l7464                                                          
l7466                                                          
l7468                                                          
l7472                                                          
l7588                                                          
l7590                                                          
l7592                                                          
l7594                                                          
l7596                                                          
l7598                                                          
l7600                                                          
l7602                                                          
l7604                                                          
l7606                                                          
l7608                                                          
l7614                                                          
l7630                                                          
l7632                                                          
l7634                                                          
l7640                                                          
l7648                                                          
l7650                                                          
l7652                                                          
l7654                                                          
l7656                                                          
l7664                                                          
l7666                                                          
l7670                                                          
l7682                                                          
l7694                                                          
l7714                                                          
l7722                                                          
l7724                                                          
l7730                                                          
l7738                                                          
l7740                                                          
l7746                                                          
l7748                                                          
l7758                                                          
l7762                                                          
l7766                                                          
l7772                                                          
l7786                                                          
l7792                                                          
l7794                                                          
l7814                                                          
l7816                                                          
l7818                                                          
l7820                                                          
l7826                                                          
l7828                                                          
l7830                                                          
l7832                                                          
l7834                                                          
l7842                                                          
l7852                                                          
l7862                                                          
l7864                                                          
l7866                                                          
l7868                                                          
l7870                                                          
l7872                                                          
l7874                                                          
l7876                                                          
l7878                                                          
l7880                                                          
l7882                                                          
l7884                                                          
l7886                                                          
l7894                                                          
l7898                                                          
l7900                                                          
l7904                                                          
l7908                                                          
l7910                                                          
l7914                                                          
l7916                                                          
l7918                                                          
l7920                                                          
l7922                                                          
l7924                                                          
l7934                                                          
l7940                                                          
l7946                                                          
l7948                                                          
l7952                                                          
l7964                                                          
l7974                                                          
l7980                                                          
l7984                                                          
l7986                                                          
l7990                                                          
l7992                                                          
l7998                                                          
l8010                                                          
l8012                                                          
l8014                                                          
l8016                                                          
l8018                                                          
l8020                                                          
l8022                                                          
l8024                                                          
l8026                                                          
l8032                                                          
l8036                                                          
l8038                                                          
l8042                                                          
l8056                                                          
l8058                                                          
l8060                                                          
l8062                                                          
l8064                                                          
l8066                                                          
l8068                                                          
l8070                                                          
l8078                                                          
l8080                                                          
l8082                                                          
l8090                                                          
l8092                                                          
l8094                                                          
l8098                                                          
l8100                                                          
l8104                                                          
l8110                                                          
l8114                                                          
l8122                                                          
l8124                                                          
l8128                                                          
l8130                                                          
l8134                                                          
l8180                                                          
l8188                                                          
l8190                                                          
l8194                                                          
l8196                                                          
l8202                                                          
l8204                                                          
l8206                                                          
l8208                                                          
l8210                                                          
l8212                                                          
l8214                                                          
l8216                                                          
l8220                                                          
l8226                                                          
l8232                                                          
l8240                                                          
l8248                                                          
l8250                                                          
l8252                                                          
l8256                                                          
l8260                                                          
l8264                                                          
l8272                                                          
l8286                                                          
l8320                                                          
l8326                                                          
l8332                                                          
l8334                                                          
l8336                                                          
l8338                                                          
l8350                                                          
l8352                                                          
l8354                                                          
l8358                                                          
l8360                                                          
l8362                                                          
l8364                                                          
l8372                                                          
l8374                                                          
l8376                                                          
l8380                                                          
l8382                                                          
l8384                                                          
l8386                                                          
l8394                                                          
l8396                                                          
l8398                                                          
l8402                                                          
l8404                                                          
l8406                                                          
l8408                                                          
l8414                                                          
l8416                                                          
l8418                                                          
l8420                                                          
l8422                                                          
l8428                                                          
l8430                                                          
l8432                                                          
l8434                                                          
l8436                                                          
l8438                                                          
l8440                                                          
l8442                                                          
l8444                                                          
l8448                                                          
l8452                                                          
l8454                                                          
l8456                                                          
l8470                                                          
l8474                                                          
l8476                                                          
l8478                                                          
l8480                                                          
l8482                                                          
l8484                                                          
l8486                                                          
l8488                                                          
l8490                                                          
l8492                                                          
l8494                                                          
l8496                                                          
l8498                                                          
l8500                                                          
l8502                                                          
l8504                                                          
read_ADC@adcResult                           cstackBANK0  00024
read_ADC@analogChannel                       cstackBANK0  00023
reset_vec                                    reset_vec    00000
saved_w                                      (abs)        0007E
setCommunicationTimeOut@value                cstackBANK0  00020
start                                        init         0000E
start_initialization                         cinit        00B36
temperatureOffset@offset                     cstackBANK0  0002A
u2170                                                          
utoa@base                                    cstackBANK0  00029
utoa@buf                                     cstackBANK0  0002E
utoa@c                                       cstackBANK0  0002D
utoa@v                                       cstackBANK0  0002B
utoa@val                                     cstackBANK0  00027
vAddToUartReceiveBuffer@data                 cstackCOMMON 00070
vAddToUartTransmitBuffer@data                cstackBANK0  00020
vPulseRelay@relay                            cstackBANK0  00024
vPulseRelay@timerValue                       cstackBANK0  00023
vResetPrintBuffer@i                          cstackBANK0  00020
vSendTemperatureToBuffer@convData            cstackBANK0  00035
vSetRelay@relay                              cstackBANK0  00021
vSetRelay@value                              cstackBANK0  00020
wtemp0                                       (abs)        0007E
